target datalayout = "e-m:e-p270:32:32-p271:32:32-p272:64:64-i64:64-i128:128-f80:128-n8:16:32:64-S128"
target triple = "x86_64-pc-linux-gnu"

%struct.TupleTableSlotOps = type { i64, ptr, ptr, ptr, ptr, ptr, ptr, ptr, ptr, ptr, ptr, ptr, ptr }
%struct.WalReceiverFunctionsType = type { ptr, ptr, ptr, ptr, ptr, ptr, ptr, ptr, ptr, ptr, ptr, ptr, ptr, ptr, ptr, ptr, ptr }
%struct.StringInfoData = type { ptr, i32, i32, i32 }
%struct.WalRcvExecResult = type { i32, i32, ptr, ptr, ptr }
%struct.ItemPointerData = type { %struct.BlockIdData, i16 }
%struct.BlockIdData = type { i16, i16 }
%struct.TupleTableSlot = type { i32, i16, i16, ptr, ptr, ptr, ptr, ptr, %struct.ItemPointerData, i32 }

@.str.4 = private unnamed_addr constant [19 x i8] c"subscriptioncmds.c\00", align 1
@WalReceiverFunctions = external global ptr, align 8
@TTSOpsMinimalTuple = external constant %struct.TupleTableSlotOps, align 8
@.str.94 = private unnamed_addr constant [67 x i8] c"could not receive list of replicated tables from the publisher: %s\00", align 1
@__const.fetch_table_list.tableRow = private unnamed_addr constant [3 x i32] [i32 25, i32 25, i32 0], align 4
@.str.100 = private unnamed_addr constant [44 x i8] c"SELECT DISTINCT t.schemaname, t.tablename \0A\00", align 1
@.str.101 = private unnamed_addr constant [14 x i8] c", t.attnames\0A\00", align 1
@.str.102 = private unnamed_addr constant [67 x i8] c"FROM pg_catalog.pg_publication_tables t\0A WHERE t.pubname IN ( %s )\00", align 1
@__func__.fetch_table_list = private unnamed_addr constant [17 x i8] c"fetch_table_list\00", align 1
@.str.103 = private unnamed_addr constant [78 x i8] c"cannot use different column lists for table \22%s.%s\22 in different publications\00", align 1

; Function Attrs: inlinehint nounwind uwtable
define internal void @slot_getsomeattrs(ptr noundef %0, i32 noundef %1) #5 {
  %3 = alloca ptr, align 8
  %4 = alloca i32, align 4
  store ptr %0, ptr %3, align 8
  store i32 %1, ptr %4, align 4
  %5 = load ptr, ptr %3, align 8
  %6 = getelementptr inbounds nuw %struct.TupleTableSlot, ptr %5, i32 0, i32 2
  %7 = load i16, ptr %6, align 2
  %8 = sext i16 %7 to i32
  %9 = load i32, ptr %4, align 4
  %10 = icmp slt i32 %8, %9
  br i1 %10, label %11, label %14

11:                                               ; preds = %2
  %12 = load ptr, ptr %3, align 8
  %13 = load i32, ptr %4, align 4
  call void @slot_getsomeattrs_int(ptr noundef %12, i32 noundef %13)
  br label %14

14:                                               ; preds = %11, %2
  ret void
}

; Function Attrs: inlinehint nounwind uwtable
define internal void @walrcv_clear_result(ptr noundef %0) #5 {
  %2 = alloca ptr, align 8
  store ptr %0, ptr %2, align 8
  %3 = load ptr, ptr %2, align 8
  %4 = icmp ne ptr %3, null
  br i1 %4, label %6, label %5

5:                                                ; preds = %1
  br label %35

6:                                                ; preds = %1
  %7 = load ptr, ptr %2, align 8
  %8 = getelementptr inbounds nuw %struct.WalRcvExecResult, ptr %7, i32 0, i32 2
  %9 = load ptr, ptr %8, align 8
  %10 = icmp ne ptr %9, null
  br i1 %10, label %11, label %15

11:                                               ; preds = %6
  %12 = load ptr, ptr %2, align 8
  %13 = getelementptr inbounds nuw %struct.WalRcvExecResult, ptr %12, i32 0, i32 2
  %14 = load ptr, ptr %13, align 8
  call void @pfree(ptr noundef %14)
  br label %15

15:                                               ; preds = %11, %6
  %16 = load ptr, ptr %2, align 8
  %17 = getelementptr inbounds nuw %struct.WalRcvExecResult, ptr %16, i32 0, i32 3
  %18 = load ptr, ptr %17, align 8
  %19 = icmp ne ptr %18, null
  br i1 %19, label %20, label %24

20:                                               ; preds = %15
  %21 = load ptr, ptr %2, align 8
  %22 = getelementptr inbounds nuw %struct.WalRcvExecResult, ptr %21, i32 0, i32 3
  %23 = load ptr, ptr %22, align 8
  call void @tuplestore_end(ptr noundef %23)
  br label %24

24:                                               ; preds = %20, %15
  %25 = load ptr, ptr %2, align 8
  %26 = getelementptr inbounds nuw %struct.WalRcvExecResult, ptr %25, i32 0, i32 4
  %27 = load ptr, ptr %26, align 8
  %28 = icmp ne ptr %27, null
  br i1 %28, label %29, label %33

29:                                               ; preds = %24
  %30 = load ptr, ptr %2, align 8
  %31 = getelementptr inbounds nuw %struct.WalRcvExecResult, ptr %30, i32 0, i32 4
  %32 = load ptr, ptr %31, align 8
  call void @FreeTupleDesc(ptr noundef %32)
  br label %33

33:                                               ; preds = %29, %24
  %34 = load ptr, ptr %2, align 8
  call void @pfree(ptr noundef %34)
  br label %35

35:                                               ; preds = %33, %5
  ret void
}

; Function Attrs: inlinehint nounwind uwtable
define internal ptr @ExecClearTuple(ptr noundef %0) #5 {
  %2 = alloca ptr, align 8
  store ptr %0, ptr %2, align 8
  %3 = load ptr, ptr %2, align 8
  %4 = getelementptr inbounds nuw %struct.TupleTableSlot, ptr %3, i32 0, i32 3
  %5 = load ptr, ptr %4, align 8
  %6 = getelementptr inbounds nuw %struct.TupleTableSlotOps, ptr %5, i32 0, i32 3
  %7 = load ptr, ptr %6, align 8
  %8 = load ptr, ptr %2, align 8
  call void %7(ptr noundef %8)
  %9 = load ptr, ptr %2, align 8
  ret ptr %9
}

; Function Attrs: inlinehint nounwind uwtable
define internal ptr @DatumGetPointer(i64 noundef %0) #5 {
  %2 = alloca i64, align 8
  store i64 %0, ptr %2, align 8
  %3 = load i64, ptr %2, align 8
  %4 = inttoptr i64 %3 to ptr
  ret ptr %4
}

; Function Attrs: inlinehint nounwind uwtable
define internal i64 @slot_getattr(ptr noundef %0, i32 noundef %1, ptr noundef %2) #5 {
  %4 = alloca ptr, align 8
  %5 = alloca i32, align 4
  %6 = alloca ptr, align 8
  store ptr %0, ptr %4, align 8
  store i32 %1, ptr %5, align 4
  store ptr %2, ptr %6, align 8
  %7 = load i32, ptr %5, align 4
  %8 = load ptr, ptr %4, align 8
  %9 = getelementptr inbounds nuw %struct.TupleTableSlot, ptr %8, i32 0, i32 2
  %10 = load i16, ptr %9, align 2
  %11 = sext i16 %10 to i32
  %12 = icmp sgt i32 %7, %11
  br i1 %12, label %13, label %16

13:                                               ; preds = %3
  %14 = load ptr, ptr %4, align 8
  %15 = load i32, ptr %5, align 4
  call void @slot_getsomeattrs(ptr noundef %14, i32 noundef %15)
  br label %16

16:                                               ; preds = %13, %3
  %17 = load ptr, ptr %4, align 8
  %18 = getelementptr inbounds nuw %struct.TupleTableSlot, ptr %17, i32 0, i32 6
  %19 = load ptr, ptr %18, align 8
  %20 = load i32, ptr %5, align 4
  %21 = sub i32 %20, 1
  %22 = sext i32 %21 to i64
  %23 = getelementptr inbounds i8, ptr %19, i64 %22
  %24 = load i8, ptr %23, align 1, !range !4, !noundef !5
  %25 = trunc i8 %24 to i1
  %26 = load ptr, ptr %6, align 8
  %27 = zext i1 %25 to i8
  store i8 %27, ptr %26, align 1
  %28 = load ptr, ptr %4, align 8
  %29 = getelementptr inbounds nuw %struct.TupleTableSlot, ptr %28, i32 0, i32 5
  %30 = load ptr, ptr %29, align 8
  %31 = load i32, ptr %5, align 4
  %32 = sub i32 %31, 1
  %33 = sext i32 %32 to i64
  %34 = getelementptr inbounds i64, ptr %30, i64 %33
  %35 = load i64, ptr %34, align 8
  ret i64 %35
}

; Function Attrs: nounwind uwtable
define internal ptr @fetch_table_list(ptr noundef %0, ptr noundef %1) #0 {
  %3 = alloca ptr, align 8
  %4 = alloca ptr, align 8
  %5 = alloca ptr, align 8
  %6 = alloca %struct.StringInfoData, align 8
  %7 = alloca ptr, align 8
  %8 = alloca [3 x i32], align 4
  %9 = alloca ptr, align 8
  %10 = alloca i32, align 4
  %11 = alloca i8, align 1
  %12 = alloca ptr, align 8
  %13 = alloca ptr, align 8
  %14 = alloca ptr, align 8
  %15 = alloca i8, align 1
  %16 = alloca ptr, align 8
  store ptr %0, ptr %3, align 8
  store ptr %1, ptr %4, align 8
  call void @llvm.lifetime.start.p0(i64 8, ptr %5) #10
  call void @llvm.lifetime.start.p0(i64 24, ptr %6) #10
  call void @llvm.lifetime.start.p0(i64 8, ptr %7) #10
  call void @llvm.lifetime.start.p0(i64 12, ptr %8) #10
  call void @llvm.memcpy.p0.p0.i64(ptr align 4 %8, ptr align 4 @__const.fetch_table_list.tableRow, i64 12, i1 false)
  call void @llvm.lifetime.start.p0(i64 8, ptr %9) #10
  store ptr null, ptr %9, align 8
  call void @llvm.lifetime.start.p0(i64 4, ptr %10) #10
  %17 = load ptr, ptr @WalReceiverFunctions, align 8
  %18 = getelementptr inbounds nuw %struct.WalReceiverFunctionsType, ptr %17, i32 0, i32 6
  %19 = load ptr, ptr %18, align 8
  %20 = load ptr, ptr %3, align 8
  %21 = call i32 %19(ptr noundef %20)
  store i32 %21, ptr %10, align 4
  call void @llvm.lifetime.start.p0(i64 1, ptr %11) #10
  %22 = load i32, ptr %10, align 4
  %23 = icmp sge i32 %22, 150000
  %24 = zext i1 %23 to i8
  store i8 %24, ptr %11, align 1
  call void @llvm.lifetime.start.p0(i64 8, ptr %12) #10
  %25 = call ptr @makeStringInfo()
  store ptr %25, ptr %12, align 8
  call void @initStringInfo(ptr noundef %6)
  %26 = load ptr, ptr %4, align 8
  %27 = load ptr, ptr %12, align 8
  call void @GetPublicationsStr(ptr noundef %26, ptr noundef %27, i1 noundef zeroext true)
  %28 = load i32, ptr %10, align 4
  %29 = icmp sge i32 %28, 160000
  br i1 %29, label %30, label %35

30:                                               ; preds = %2
  %31 = getelementptr inbounds [3 x i32], ptr %8, i64 0, i64 2
  store i32 22, ptr %31, align 4
  %32 = load ptr, ptr %12, align 8
  %33 = getelementptr inbounds nuw %struct.StringInfoData, ptr %32, i32 0, i32 0
  %34 = load ptr, ptr %33, align 8
  call void (ptr, ptr, ...) @appendStringInfo(ptr noundef %6, ptr noundef @.str.99, ptr noundef %34)
  br label %44

35:                                               ; preds = %2
  %36 = getelementptr inbounds [3 x i32], ptr %8, i64 0, i64 2
  store i32 1003, ptr %36, align 4
  call void @appendStringInfoString(ptr noundef %6, ptr noundef @.str.100)
  %37 = load i8, ptr %11, align 1, !range !4, !noundef !5
  %38 = trunc i8 %37 to i1
  br i1 %38, label %39, label %40

39:                                               ; preds = %35
  call void @appendStringInfoString(ptr noundef %6, ptr noundef @.str.101)
  br label %40

40:                                               ; preds = %39, %35
  %41 = load ptr, ptr %12, align 8
  %42 = getelementptr inbounds nuw %struct.StringInfoData, ptr %41, i32 0, i32 0
  %43 = load ptr, ptr %42, align 8
  call void (ptr, ptr, ...) @appendStringInfo(ptr noundef %6, ptr noundef @.str.102, ptr noundef %43)
  br label %44

44:                                               ; preds = %40, %30
  %45 = load ptr, ptr %12, align 8
  call void @destroyStringInfo(ptr noundef %45)
  %46 = load ptr, ptr @WalReceiverFunctions, align 8
  %47 = getelementptr inbounds nuw %struct.WalReceiverFunctionsType, ptr %46, i32 0, i32 15
  %48 = load ptr, ptr %47, align 8
  %49 = load ptr, ptr %3, align 8
  %50 = getelementptr inbounds nuw %struct.StringInfoData, ptr %6, i32 0, i32 0
  %51 = load ptr, ptr %50, align 8
  %52 = load i8, ptr %11, align 1, !range !4, !noundef !5
  %53 = trunc i8 %52 to i1
  %54 = select i1 %53, i32 3, i32 2
  %55 = getelementptr inbounds [3 x i32], ptr %8, i64 0, i64 0
  %56 = call ptr %48(ptr noundef %49, ptr noundef %51, i32 noundef %54, ptr noundef %55)
  store ptr %56, ptr %5, align 8
  %57 = getelementptr inbounds nuw %struct.StringInfoData, ptr %6, i32 0, i32 0
  %58 = load ptr, ptr %57, align 8
  call void @pfree(ptr noundef %58)
  %59 = load ptr, ptr %5, align 8
  %60 = getelementptr inbounds nuw %struct.WalRcvExecResult, ptr %59, i32 0, i32 0
  %61 = load i32, ptr %60, align 8
  %62 = icmp ne i32 %61, 2
  br i1 %62, label %63, label %78

63:                                               ; preds = %44
  br label %64

64:                                               ; preds = %63
  br i1 true, label %65, label %67

65:                                               ; preds = %64
  %66 = call zeroext i1 @errstart_cold(i32 noundef 21, ptr noundef null) #11
  br i1 %66, label %69, label %75

67:                                               ; preds = %64
  %68 = call zeroext i1 @errstart(i32 noundef 21, ptr noundef null)
  br i1 %68, label %69, label %75

69:                                               ; preds = %67, %65
  %70 = call i32 @errcode(i32 noundef 100663808)
  %71 = load ptr, ptr %5, align 8
  %72 = getelementptr inbounds nuw %struct.WalRcvExecResult, ptr %71, i32 0, i32 2
  %73 = load ptr, ptr %72, align 8
  %74 = call i32 (ptr, ...) @errmsg(ptr noundef @.str.94, ptr noundef %73)
  call void @errfinish(ptr noundef @.str.4, i32 noundef 2272, ptr noundef @__func__.fetch_table_list)
  br label %75

75:                                               ; preds = %69, %67, %65
  unreachable

76:                                               ; No predecessors!
  br label %77

77:                                               ; preds = %76
  br label %78

78:                                               ; preds = %77, %44
  %79 = load ptr, ptr %5, align 8
  %80 = getelementptr inbounds nuw %struct.WalRcvExecResult, ptr %79, i32 0, i32 4
  %81 = load ptr, ptr %80, align 8
  %82 = call ptr @MakeSingleTupleTableSlot(ptr noundef %81, ptr noundef @TTSOpsMinimalTuple)
  store ptr %82, ptr %7, align 8
  br label %83

83:                                               ; preds = %125, %78
  %84 = load ptr, ptr %5, align 8
  %85 = getelementptr inbounds nuw %struct.WalRcvExecResult, ptr %84, i32 0, i32 3
  %86 = load ptr, ptr %85, align 8
  %87 = load ptr, ptr %7, align 8
  %88 = call zeroext i1 @tuplestore_gettupleslot(ptr noundef %86, i1 noundef zeroext true, i1 noundef zeroext false, ptr noundef %87)
  br i1 %88, label %89, label %128

89:                                               ; preds = %83
  call void @llvm.lifetime.start.p0(i64 8, ptr %13) #10
  call void @llvm.lifetime.start.p0(i64 8, ptr %14) #10
  call void @llvm.lifetime.start.p0(i64 1, ptr %15) #10
  call void @llvm.lifetime.start.p0(i64 8, ptr %16) #10
  %90 = load ptr, ptr %7, align 8
  %91 = call i64 @slot_getattr(ptr noundef %90, i32 noundef 1, ptr noundef %15)
  %92 = call ptr @DatumGetPointer(i64 noundef %91)
  %93 = call ptr @text_to_cstring(ptr noundef %92)
  store ptr %93, ptr %13, align 8
  %94 = load ptr, ptr %7, align 8
  %95 = call i64 @slot_getattr(ptr noundef %94, i32 noundef 2, ptr noundef %15)
  %96 = call ptr @DatumGetPointer(i64 noundef %95)
  %97 = call ptr @text_to_cstring(ptr noundef %96)
  store ptr %97, ptr %14, align 8
  %98 = load ptr, ptr %13, align 8
  %99 = load ptr, ptr %14, align 8
  %100 = call ptr @makeRangeVar(ptr noundef %98, ptr noundef %99, i32 noundef -1)
  store ptr %100, ptr %16, align 8
  %101 = load i8, ptr %11, align 1, !range !4, !noundef !5
  %102 = trunc i8 %101 to i1
  br i1 %102, label %103, label %121

103:                                              ; preds = %89
  %104 = load ptr, ptr %9, align 8
  %105 = load ptr, ptr %16, align 8
  %106 = call zeroext i1 @list_member(ptr noundef %104, ptr noundef %105)
  br i1 %106, label %107, label %121

107:                                              ; preds = %103
  br label %108

108:                                              ; preds = %107
  br i1 true, label %109, label %111

109:                                              ; preds = %108
  %110 = call zeroext i1 @errstart_cold(i32 noundef 21, ptr noundef null) #11
  br i1 %110, label %113, label %118

111:                                              ; preds = %108
  %112 = call zeroext i1 @errstart(i32 noundef 21, ptr noundef null)
  br i1 %112, label %113, label %118

113:                                              ; preds = %111, %109
  %114 = call i32 @errcode(i32 noundef 1088)
  %115 = load ptr, ptr %13, align 8
  %116 = load ptr, ptr %14, align 8
  %117 = call i32 (ptr, ...) @errmsg(ptr noundef @.str.103, ptr noundef %115, ptr noundef %116)
  call void @errfinish(ptr noundef @.str.4, i32 noundef 2294, ptr noundef @__func__.fetch_table_list)
  br label %118

118:                                              ; preds = %113, %111, %109
  unreachable

119:                                              ; No predecessors!
  br label %120

120:                                              ; preds = %119
  br label %125

121:                                              ; preds = %103, %89
  %122 = load ptr, ptr %9, align 8
  %123 = load ptr, ptr %16, align 8
  %124 = call ptr @lappend(ptr noundef %122, ptr noundef %123)
  store ptr %124, ptr %9, align 8
  br label %125

125:                                              ; preds = %121, %120
  %126 = load ptr, ptr %7, align 8
  %127 = call ptr @ExecClearTuple(ptr noundef %126)
  call void @llvm.lifetime.end.p0(i64 8, ptr %16) #10
  call void @llvm.lifetime.end.p0(i64 1, ptr %15) #10
  call void @llvm.lifetime.end.p0(i64 8, ptr %14) #10
  call void @llvm.lifetime.end.p0(i64 8, ptr %13) #10
  br label %83, !llvm.loop !12

128:                                              ; preds = %83
  %129 = load ptr, ptr %7, align 8
  call void @ExecDropSingleTupleTableSlot(ptr noundef %129)
  %130 = load ptr, ptr %5, align 8
  call void @walrcv_clear_result(ptr noundef %130)
  %131 = load ptr, ptr %9, align 8
  call void @llvm.lifetime.end.p0(i64 8, ptr %12) #10
  call void @llvm.lifetime.end.p0(i64 1, ptr %11) #10
  call void @llvm.lifetime.end.p0(i64 4, ptr %10) #10
  call void @llvm.lifetime.end.p0(i64 8, ptr %9) #10
  call void @llvm.lifetime.end.p0(i64 12, ptr %8) #10
  call void @llvm.lifetime.end.p0(i64 8, ptr %7) #10
  call void @llvm.lifetime.end.p0(i64 24, ptr %6) #10
  call void @llvm.lifetime.end.p0(i64 8, ptr %5) #10
  ret ptr %131
}