; Function Attrs: nounwind uwtable
define internal fastcc ptr @fetch_table_list(ptr noundef nonnull %0, ptr noundef %1) unnamed_addr #0 {
  %3 = alloca %struct.StringInfoData, align 8
  %4 = alloca [3 x i32], align 4
  call void @llvm.lifetime.start.p0(i64 24, ptr nonnull %3) #10
  call void @llvm.lifetime.start.p0(i64 12, ptr nonnull %4) #10
  call void @llvm.memcpy.p0.p0.i64(ptr noundef nonnull align 4 dereferenceable(12) %4, ptr noundef nonnull align 4 dereferenceable(12) @__const.fetch_table_list.tableRow, i64 12, i1 false)
  %5 = load ptr, ptr @WalReceiverFunctions, align 8
  %6 = getelementptr inbounds nuw i8, ptr %5, i64 48
  %7 = load ptr, ptr %6, align 8
  %8 = tail call i32 %7(ptr noundef nonnull %0) #10
  %.fr39 = freeze i32 %8
  %9 = icmp sgt i32 %.fr39, 149999
  %10 = tail call ptr @makeStringInfo() #10
  call void @initStringInfo(ptr noundef nonnull %3) #10
  call void @GetPublicationsStr(ptr noundef %1, ptr noundef %10, i1 noundef zeroext true) #10
  %11 = icmp sgt i32 %.fr39, 159999
  %12 = getelementptr inbounds nuw i8, ptr %4, i64 8
  br i1 %11, label %13, label %14

13:                                               ; preds = %2
  store i32 22, ptr %12, align 4
  br label %16

14:                                               ; preds = %2
  store i32 1003, ptr %12, align 4
  call void @appendStringInfoString(ptr noundef nonnull %3, ptr noundef nonnull @.str.100) #10
  br i1 %9, label %15, label %16

15:                                               ; preds = %14
  call void @appendStringInfoString(ptr noundef nonnull %3, ptr noundef nonnull @.str.101) #10
  br label %16

16:                                               ; preds = %14, %15, %13
  %.str.102.sink = phi ptr [ @.str.99, %13 ], [ @.str.102, %15 ], [ @.str.102, %14 ]
  %17 = load ptr, ptr %10, align 8
  call void (ptr, ptr, ...) @appendStringInfo(ptr noundef nonnull %3, ptr noundef nonnull %.str.102.sink, ptr noundef %17) #10
  call void @destroyStringInfo(ptr noundef nonnull %10) #10
  %18 = load ptr, ptr @WalReceiverFunctions, align 8
  %19 = getelementptr inbounds nuw i8, ptr %18, i64 120
  %20 = load ptr, ptr %19, align 8
  %21 = load ptr, ptr %3, align 8
  %22 = select i1 %9, i32 3, i32 2
  %23 = call ptr %20(ptr noundef nonnull %0, ptr noundef %21, i32 noundef %22, ptr noundef nonnull %4) #10
  %24 = load ptr, ptr %3, align 8
  call void @pfree(ptr noundef %24) #10
  %25 = load i32, ptr %23, align 8
  %.not = icmp eq i32 %25, 2
  br i1 %.not, label %32, label %26

26:                                               ; preds = %16
  %27 = call zeroext i1 @errstart_cold(i32 noundef 21, ptr noundef null) #11
  call void @llvm.assume(i1 %27)
  %28 = call i32 @errcode(i32 noundef 100663808) #10
  %29 = getelementptr inbounds nuw i8, ptr %23, i64 8
  %30 = load ptr, ptr %29, align 8
  %31 = call i32 (ptr, ...) @errmsg(ptr noundef nonnull @.str.94, ptr noundef %30) #10
  call void @errfinish(ptr noundef nonnull @.str.4, i32 noundef 2272, ptr noundef nonnull @__func__.fetch_table_list) #10
  unreachable

32:                                               ; preds = %16
  %33 = getelementptr inbounds nuw i8, ptr %23, i64 24
  %34 = load ptr, ptr %33, align 8
  %35 = call ptr @MakeSingleTupleTableSlot(ptr noundef %34, ptr noundef nonnull @TTSOpsMinimalTuple) #10
  %36 = getelementptr inbounds nuw i8, ptr %23, i64 16
  %37 = load ptr, ptr %36, align 8
  %38 = call zeroext i1 @tuplestore_gettupleslot(ptr noundef %37, i1 noundef zeroext true, i1 noundef zeroext false, ptr noundef %35) #10
  br i1 %38, label %.lr.ph, label %._crit_edge

.lr.ph:                                           ; preds = %32
  %39 = getelementptr inbounds nuw i8, ptr %35, i64 6
  %40 = getelementptr inbounds nuw i8, ptr %35, i64 24
  %41 = getelementptr inbounds nuw i8, ptr %35, i64 8
  br i1 %9, label %.lr.ph.split.us, label %.lr.ph.split

.lr.ph.split.us:                                  ; preds = %.lr.ph, %57
  %.036.us = phi ptr [ %58, %57 ], [ null, %.lr.ph ]
  %42 = load i16, ptr %39, align 2
  %43 = icmp slt i16 %42, 1
  br i1 %43, label %slot_getsomeattrs.exit.i.us, label %slot_getattr.exit.us

slot_getsomeattrs.exit.i.us:                      ; preds = %.lr.ph.split.us
  call void @slot_getsomeattrs_int(ptr noundef nonnull %35, i32 noundef range(i32 1, 3) 1) #10
  br label %slot_getattr.exit.us

slot_getattr.exit.us:                             ; preds = %slot_getsomeattrs.exit.i.us, %.lr.ph.split.us
  %44 = load ptr, ptr %40, align 8
  %45 = load i64, ptr %44, align 8
  %46 = inttoptr i64 %45 to ptr
  %47 = call ptr @text_to_cstring(ptr noundef %46) #10
  %48 = load i16, ptr %39, align 2
  %49 = icmp slt i16 %48, 2
  br i1 %49, label %slot_getsomeattrs.exit.i30.us, label %slot_getattr.exit31.us

slot_getsomeattrs.exit.i30.us:                    ; preds = %slot_getattr.exit.us
  call void @slot_getsomeattrs_int(ptr noundef nonnull %35, i32 noundef range(i32 1, 3) 2) #10
  br label %slot_getattr.exit31.us

slot_getattr.exit31.us:                           ; preds = %slot_getsomeattrs.exit.i30.us, %slot_getattr.exit.us
  %50 = load ptr, ptr %40, align 8
  %51 = getelementptr inbounds nuw i8, ptr %50, i64 8
  %52 = load i64, ptr %51, align 8
  %53 = inttoptr i64 %52 to ptr
  %54 = call ptr @text_to_cstring(ptr noundef %53) #10
  %55 = call ptr @makeRangeVar(ptr noundef %47, ptr noundef %54, i32 noundef -1) #10
  %56 = call zeroext i1 @list_member(ptr noundef %.036.us, ptr noundef %55) #10
  br i1 %56, label %.split.us, label %57

57:                                               ; preds = %slot_getattr.exit31.us
  %58 = call ptr @lappend(ptr noundef %.036.us, ptr noundef %55) #10
  %59 = load ptr, ptr %41, align 8
  %60 = getelementptr inbounds nuw i8, ptr %59, i64 24
  %61 = load ptr, ptr %60, align 8
  call void %61(ptr noundef nonnull %35) #10
  %62 = load ptr, ptr %36, align 8
  %63 = call zeroext i1 @tuplestore_gettupleslot(ptr noundef %62, i1 noundef zeroext true, i1 noundef zeroext false, ptr noundef nonnull %35) #10
  br i1 %63, label %.lr.ph.split.us, label %._crit_edge, !llvm.loop !10

.lr.ph.split:                                     ; preds = %.lr.ph, %slot_getattr.exit31
  %.036 = phi ptr [ %78, %slot_getattr.exit31 ], [ null, %.lr.ph ]
  %64 = load i16, ptr %39, align 2
  %65 = icmp slt i16 %64, 1
  br i1 %65, label %slot_getsomeattrs.exit.i, label %slot_getattr.exit

slot_getsomeattrs.exit.i:                         ; preds = %.lr.ph.split
  call void @slot_getsomeattrs_int(ptr noundef nonnull %35, i32 noundef range(i32 1, 3) 1) #10
  br label %slot_getattr.exit

slot_getattr.exit:                                ; preds = %.lr.ph.split, %slot_getsomeattrs.exit.i
  %66 = load ptr, ptr %40, align 8
  %67 = load i64, ptr %66, align 8
  %68 = inttoptr i64 %67 to ptr
  %69 = call ptr @text_to_cstring(ptr noundef %68) #10
  %70 = load i16, ptr %39, align 2
  %71 = icmp slt i16 %70, 2
  br i1 %71, label %slot_getsomeattrs.exit.i30, label %slot_getattr.exit31

slot_getsomeattrs.exit.i30:                       ; preds = %slot_getattr.exit
  call void @slot_getsomeattrs_int(ptr noundef nonnull %35, i32 noundef range(i32 1, 3) 2) #10
  br label %slot_getattr.exit31

slot_getattr.exit31:                              ; preds = %slot_getattr.exit, %slot_getsomeattrs.exit.i30
  %72 = load ptr, ptr %40, align 8
  %73 = getelementptr inbounds nuw i8, ptr %72, i64 8
  %74 = load i64, ptr %73, align 8
  %75 = inttoptr i64 %74 to ptr
  %76 = call ptr @text_to_cstring(ptr noundef %75) #10
  %77 = call ptr @makeRangeVar(ptr noundef %69, ptr noundef %76, i32 noundef -1) #10
  %78 = call ptr @lappend(ptr noundef %.036, ptr noundef %77) #10
  %79 = load ptr, ptr %41, align 8
  %80 = getelementptr inbounds nuw i8, ptr %79, i64 24
  %81 = load ptr, ptr %80, align 8
  call void %81(ptr noundef nonnull %35) #10
  %82 = load ptr, ptr %36, align 8
  %83 = call zeroext i1 @tuplestore_gettupleslot(ptr noundef %82, i1 noundef zeroext true, i1 noundef zeroext false, ptr noundef nonnull %35) #10
  br i1 %83, label %.lr.ph.split, label %._crit_edge, !llvm.loop !10

.split.us:                                        ; preds = %slot_getattr.exit31.us
  %84 = call zeroext i1 @errstart_cold(i32 noundef 21, ptr noundef null) #11
  call void @llvm.assume(i1 %84)
  %85 = call i32 @errcode(i32 noundef 1088) #10
  %86 = call i32 (ptr, ...) @errmsg(ptr noundef nonnull @.str.103, ptr noundef %47, ptr noundef %54) #10
  call void @errfinish(ptr noundef nonnull @.str.4, i32 noundef 2294, ptr noundef nonnull @__func__.fetch_table_list) #10
  unreachable

._crit_edge:                                      ; preds = %slot_getattr.exit31, %57, %32
  %.0.lcssa = phi ptr [ null, %32 ], [ %58, %57 ], [ %78, %slot_getattr.exit31 ]
  call void @ExecDropSingleTupleTableSlot(ptr noundef %35) #10
  %87 = getelementptr inbounds nuw i8, ptr %23, i64 8
  %88 = load ptr, ptr %87, align 8
  %.not11.i = icmp eq ptr %88, null
  br i1 %.not11.i, label %90, label %89

89:                                               ; preds = %._crit_edge
  call void @pfree(ptr noundef nonnull %88) #10
  br label %90

90:                                               ; preds = %89, %._crit_edge
  %91 = load ptr, ptr %36, align 8
  %.not12.i = icmp eq ptr %91, null
  br i1 %.not12.i, label %93, label %92

92:                                               ; preds = %90
  call void @tuplestore_end(ptr noundef nonnull %91) #10
  br label %93

93:                                               ; preds = %92, %90
  %94 = load ptr, ptr %33, align 8
  %.not13.i = icmp eq ptr %94, null
  br i1 %.not13.i, label %walrcv_clear_result.exit, label %95

95:                                               ; preds = %93
  call void @FreeTupleDesc(ptr noundef nonnull %94) #10
  br label %walrcv_clear_result.exit

walrcv_clear_result.exit:                         ; preds = %93, %95
  call void @pfree(ptr noundef nonnull %23) #10
  call void @llvm.lifetime.end.p0(i64 12, ptr nonnull %4) #10
  call void @llvm.lifetime.end.p0(i64 24, ptr nonnull %3) #10
  ret ptr %.0.lcssa
}